target datalayout = "e-m:e-p270:32:32-p271:32:32-p272:64:64-i64:64-i128:128-f80:128-n8:16:32:64-S128"
target triple = "x86_64-pc-linux-gnu"

%"class.std::unique_ptr" = type { %"struct.std::__uniq_ptr_data" }
%"struct.std::__uniq_ptr_data" = type { %"class.std::__uniq_ptr_impl" }
%"class.std::__uniq_ptr_impl" = type { %"class.std::tuple" }
%"class.std::tuple" = type { %"struct.std::_Tuple_impl" }
%"struct.std::_Tuple_impl" = type { %"struct.std::_Head_base.1" }
%"struct.std::_Head_base.1" = type { ptr }
%struct.stack_t = type { ptr, i32, i64 }
%"class.std::__cxx11::basic_string" = type { %"struct.std::__cxx11::basic_string<char>::_Alloc_hider", i64, %union.anon }
%"struct.std::__cxx11::basic_string<char>::_Alloc_hider" = type { ptr }
%union.anon = type { i64, [8 x i8] }
%"class.std::allocator" = type { i8 }
%struct.sigaction = type { %union.anon.19, %struct.__sigset_t, i32, ptr }
%union.anon.19 = type { ptr }
%struct.__sigset_t = type { [16 x i64] }
%"struct.std::_Vector_base" = type { %"struct.std::_Vector_base<char, std::allocator<char>>::_Vector_impl" }
%"struct.std::_Vector_base<char, std::allocator<char>>::_Vector_impl" = type { %"struct.std::_Vector_base<char, std::allocator<char>>::_Vector_impl_data" }
%"struct.std::_Vector_base<char, std::allocator<char>>::_Vector_impl_data" = type { ptr, ptr, ptr }

@__dso_handle = external hidden global i8
@_ZZN3nix19detectStackOverflowEvE8stackBuf = internal global %"class.std::unique_ptr" zeroinitializer, align 8
@_ZGVZN3nix19detectStackOverflowEvE8stackBuf = internal global i64 0, align 8
@.str = private unnamed_addr constant [34 x i8] c"cannot allocate alternative stack\00", align 1
@_ZTIN3nix5ErrorE = linkonce_odr constant { ptr, ptr, ptr } { ptr getelementptr inbounds (ptr, ptr @_ZTVN10__cxxabiv120__si_class_type_infoE, i64 2), ptr @_ZTSN3nix5ErrorE, ptr @_ZTIN3nix9BaseErrorE }, comdat, align 8
@.str.4 = private unnamed_addr constant [29 x i8] c"cannot set alternative stack\00", align 1
@_ZTIN3nix8SysErrorE = linkonce_odr constant { ptr, ptr, ptr } { ptr getelementptr inbounds (ptr, ptr @_ZTVN10__cxxabiv120__si_class_type_infoE, i64 2), ptr @_ZTSN3nix8SysErrorE, ptr @_ZTIN3nix11SystemErrorE }, comdat, align 8
@.str.5 = private unnamed_addr constant [18 x i8] c"resetting SIGSEGV\00", align 1

; Function Attrs: mustprogress nounwind uwtable
define linkonce_odr noundef nonnull align 8 dereferenceable(8) ptr @_ZNSt10_Head_baseILm0EPSt6vectorIcSaIcEELb0EE7_M_headERKS4_(ptr noundef nonnull align 8 dereferenceable(8) %0) #2 comdat align 2 {
  %2 = alloca ptr, align 8
  store ptr %0, ptr %2, align 8
  %3 = load ptr, ptr %2, align 8
  %4 = getelementptr inbounds %"struct.std::_Head_base.1", ptr %3, i32 0, i32 0
  ret ptr %4
}

; Function Attrs: mustprogress nounwind uwtable
define linkonce_odr noundef nonnull align 8 dereferenceable(8) ptr @_ZNSt11_Tuple_implILm0EJPSt6vectorIcSaIcEESt14default_deleteIS2_EEE7_M_headERKS6_(ptr noundef nonnull align 8 dereferenceable(8) %0) #2 comdat align 2 {
  %2 = alloca ptr, align 8
  store ptr %0, ptr %2, align 8
  %3 = load ptr, ptr %2, align 8
  %4 = call noundef nonnull align 8 dereferenceable(8) ptr @_ZNSt10_Head_baseILm0EPSt6vectorIcSaIcEELb0EE7_M_headERKS4_(ptr noundef nonnull align 8 dereferenceable(8) %3) #1
  ret ptr %4
}

; Function Attrs: mustprogress nounwind uwtable
define linkonce_odr noundef nonnull align 8 dereferenceable(8) ptr @_ZSt12__get_helperILm0EPSt6vectorIcSaIcEEJSt14default_deleteIS2_EEERKT0_RKSt11_Tuple_implIXT_EJS6_DpT1_EE(ptr noundef nonnull align 8 dereferenceable(8) %0) #2 comdat {
  %2 = alloca ptr, align 8
  store ptr %0, ptr %2, align 8
  %3 = load ptr, ptr %2, align 8
  %4 = call noundef nonnull align 8 dereferenceable(8) ptr @_ZNSt11_Tuple_implILm0EJPSt6vectorIcSaIcEESt14default_deleteIS2_EEE7_M_headERKS6_(ptr noundef nonnull align 8 dereferenceable(8) %3) #1
  ret ptr %4
}

; Function Attrs: mustprogress nounwind uwtable
define linkonce_odr noundef nonnull align 8 dereferenceable(8) ptr @_ZSt3getILm0EJPSt6vectorIcSaIcEESt14default_deleteIS2_EEERKNSt13tuple_elementIXT_ESt5tupleIJDpT0_EEE4typeERKSA_(ptr noundef nonnull align 8 dereferenceable(8) %0) #2 comdat {
  %2 = alloca ptr, align 8
  store ptr %0, ptr %2, align 8
  %3 = load ptr, ptr %2, align 8
  %4 = call noundef nonnull align 8 dereferenceable(8) ptr @_ZSt12__get_helperILm0EPSt6vectorIcSaIcEEJSt14default_deleteIS2_EEERKT0_RKSt11_Tuple_implIXT_EJS6_DpT1_EE(ptr noundef nonnull align 8 dereferenceable(8) %3) #1
  ret ptr %4
}

; Function Attrs: mustprogress nounwind uwtable
define linkonce_odr noundef ptr @_ZNKSt15__uniq_ptr_implISt6vectorIcSaIcEESt14default_deleteIS2_EE6_M_ptrEv(ptr noundef nonnull align 8 dereferenceable(8) %0) #2 comdat align 2 {
  %2 = alloca ptr, align 8
  store ptr %0, ptr %2, align 8
  %3 = load ptr, ptr %2, align 8
  %4 = getelementptr inbounds %"class.std::__uniq_ptr_impl", ptr %3, i32 0, i32 0
  %5 = call noundef nonnull align 8 dereferenceable(8) ptr @_ZSt3getILm0EJPSt6vectorIcSaIcEESt14default_deleteIS2_EEERKNSt13tuple_elementIXT_ESt5tupleIJDpT0_EEE4typeERKSA_(ptr noundef nonnull align 8 dereferenceable(8) %4) #1
  %6 = load ptr, ptr %5, align 8
  ret ptr %6
}

; Function Attrs: mustprogress nounwind uwtable
define linkonce_odr noundef ptr @_ZNKSt6vectorIcSaIcEE11_M_data_ptrIcEEPT_S4_(ptr noundef nonnull align 8 dereferenceable(24) %0, ptr noundef %1) #2 comdat align 2 {
  %3 = alloca ptr, align 8
  %4 = alloca ptr, align 8
  store ptr %0, ptr %3, align 8
  store ptr %1, ptr %4, align 8
  %5 = load ptr, ptr %4, align 8
  ret ptr %5
}

; Function Attrs: mustprogress nounwind uwtable
define linkonce_odr noundef ptr @_ZNKSt10unique_ptrISt6vectorIcSaIcEESt14default_deleteIS2_EE3getEv(ptr noundef nonnull align 8 dereferenceable(8) %0) #2 comdat align 2 {
  %2 = alloca ptr, align 8
  store ptr %0, ptr %2, align 8
  %3 = load ptr, ptr %2, align 8
  %4 = getelementptr inbounds %"class.std::unique_ptr", ptr %3, i32 0, i32 0
  %5 = call noundef ptr @_ZNKSt15__uniq_ptr_implISt6vectorIcSaIcEESt14default_deleteIS2_EE6_M_ptrEv(ptr noundef nonnull align 8 dereferenceable(8) %4) #1
  ret ptr %5
}

; Function Attrs: mustprogress nounwind uwtable
define linkonce_odr noundef ptr @_ZNSt6vectorIcSaIcEE4dataEv(ptr noundef nonnull align 8 dereferenceable(24) %0) #2 comdat align 2 {
  %2 = alloca ptr, align 8
  store ptr %0, ptr %2, align 8
  %3 = load ptr, ptr %2, align 8
  %4 = getelementptr inbounds %"struct.std::_Vector_base", ptr %3, i32 0, i32 0
  %5 = getelementptr inbounds %"struct.std::_Vector_base<char, std::allocator<char>>::_Vector_impl_data", ptr %4, i32 0, i32 0
  %6 = load ptr, ptr %5, align 8
  %7 = call noundef ptr @_ZNKSt6vectorIcSaIcEE11_M_data_ptrIcEEPT_S4_(ptr noundef nonnull align 8 dereferenceable(24) %3, ptr noundef %6) #1
  ret ptr %7
}

; Function Attrs: mustprogress nounwind uwtable
define linkonce_odr noundef ptr @_ZNKSt10unique_ptrISt6vectorIcSaIcEESt14default_deleteIS2_EEptEv(ptr noundef nonnull align 8 dereferenceable(8) %0) #2 comdat align 2 {
  %2 = alloca ptr, align 8
  store ptr %0, ptr %2, align 8
  %3 = load ptr, ptr %2, align 8
  %4 = call noundef ptr @_ZNKSt10unique_ptrISt6vectorIcSaIcEESt14default_deleteIS2_EE3getEv(ptr noundef nonnull align 8 dereferenceable(8) %3) #1
  ret ptr %4
}

; Function Attrs: mustprogress uwtable
define void @_ZN3nix19detectStackOverflowEv() #5 personality ptr @__gxx_personality_v0 {
  %1 = alloca %struct.stack_t, align 8
  %2 = alloca ptr, align 8
  %3 = alloca i32, align 4
  %4 = alloca %"class.std::__cxx11::basic_string", align 8
  %5 = alloca %"class.std::allocator", align 1
  %6 = alloca i1, align 1
  %7 = alloca %struct.sigaction, align 8
  %8 = call i64 @sysconf(i32 noundef 250) #1
  %9 = add nsw i64 16384, %8
  %10 = getelementptr inbounds %struct.stack_t, ptr %1, i32 0, i32 2
  store i64 %9, ptr %10, align 8
  %11 = load atomic i8, ptr @_ZGVZN3nix19detectStackOverflowEvE8stackBuf acquire, align 8
  %12 = icmp eq i8 %11, 0
  br i1 %12, label %13, label %20, !prof !4

13:                                               ; preds = %0
  %14 = call i32 @__cxa_guard_acquire(ptr @_ZGVZN3nix19detectStackOverflowEvE8stackBuf) #1
  %15 = icmp ne i32 %14, 0
  br i1 %15, label %16, label %20

16:                                               ; preds = %13
  %17 = getelementptr inbounds %struct.stack_t, ptr %1, i32 0, i32 2
  invoke void @_ZSt11make_uniqueISt6vectorIcSaIcEEJRmEENSt8__detail9_MakeUniqIT_E15__single_objectEDpOT0_(ptr dead_on_unwind writable sret(%"class.std::unique_ptr") align 8 @_ZZN3nix19detectStackOverflowEvE8stackBuf, ptr noundef nonnull align 8 dereferenceable(8) %17)
          to label %18 unwind label %31

18:                                               ; preds = %16
  %19 = call i32 @__cxa_atexit(ptr @_ZNSt10unique_ptrISt6vectorIcSaIcEESt14default_deleteIS2_EED2Ev, ptr @_ZZN3nix19detectStackOverflowEvE8stackBuf, ptr @__dso_handle) #1
  call void @__cxa_guard_release(ptr @_ZGVZN3nix19detectStackOverflowEvE8stackBuf) #1
  br label %20

20:                                               ; preds = %18, %13, %0
  %21 = call noundef ptr @_ZNKSt10unique_ptrISt6vectorIcSaIcEESt14default_deleteIS2_EEptEv(ptr noundef nonnull align 8 dereferenceable(8) @_ZZN3nix19detectStackOverflowEvE8stackBuf) #1
  %22 = call noundef ptr @_ZNSt6vectorIcSaIcEE4dataEv(ptr noundef nonnull align 8 dereferenceable(24) %21) #1
  %23 = getelementptr inbounds %struct.stack_t, ptr %1, i32 0, i32 0
  store ptr %22, ptr %23, align 8
  %24 = getelementptr inbounds %struct.stack_t, ptr %1, i32 0, i32 0
  %25 = load ptr, ptr %24, align 8
  %26 = icmp ne ptr %25, null
  br i1 %26, label %47, label %27

27:                                               ; preds = %20
  store i1 true, ptr %6, align 1
  %28 = call ptr @__cxa_allocate_exception(i64 376) #1
  call void @_ZNSaIcEC1Ev(ptr noundef nonnull align 1 dereferenceable(1) %5) #1
  invoke void @_ZNSt7__cxx1112basic_stringIcSt11char_traitsIcESaIcEEC2IS3_EEPKcRKS3_(ptr noundef nonnull align 8 dereferenceable(32) %4, ptr noundef @.str, ptr noundef nonnull align 1 dereferenceable(1) %5)
          to label %29 unwind label %35

29:                                               ; preds = %27
  invoke void @_ZN3nix5ErrorCI2NS_9BaseErrorEIJEEERKNSt7__cxx1112basic_stringIcSt11char_traitsIcESaIcEEEDpRKT_(ptr noundef nonnull align 8 dereferenceable(376) %28, ptr noundef nonnull align 8 dereferenceable(32) %4)
          to label %30 unwind label %39

30:                                               ; preds = %29
  store i1 false, ptr %6, align 1
  invoke void @__cxa_throw(ptr %28, ptr @_ZTIN3nix5ErrorE, ptr @_ZN3nix5ErrorD2Ev) #18
          to label %78 unwind label %39

31:                                               ; preds = %16
  %32 = landingpad { ptr, i32 }
          cleanup
  %33 = extractvalue { ptr, i32 } %32, 0
  store ptr %33, ptr %2, align 8
  %34 = extractvalue { ptr, i32 } %32, 1
  store i32 %34, ptr %3, align 4
  call void @__cxa_guard_abort(ptr @_ZGVZN3nix19detectStackOverflowEvE8stackBuf) #1
  br label %73

35:                                               ; preds = %27
  %36 = landingpad { ptr, i32 }
          cleanup
  %37 = extractvalue { ptr, i32 } %36, 0
  store ptr %37, ptr %2, align 8
  %38 = extractvalue { ptr, i32 } %36, 1
  store i32 %38, ptr %3, align 4
  br label %43

39:                                               ; preds = %30, %29
  %40 = landingpad { ptr, i32 }
          cleanup
  %41 = extractvalue { ptr, i32 } %40, 0
  store ptr %41, ptr %2, align 8
  %42 = extractvalue { ptr, i32 } %40, 1
  store i32 %42, ptr %3, align 4
  call void @_ZNSt7__cxx1112basic_stringIcSt11char_traitsIcESaIcEED2Ev(ptr noundef nonnull align 8 dereferenceable(32) %4) #1
  br label %43

43:                                               ; preds = %39, %35
  call void @_ZNSaIcED1Ev(ptr noundef nonnull align 1 dereferenceable(1) %5) #1
  %44 = load i1, ptr %6, align 1
  br i1 %44, label %45, label %46

45:                                               ; preds = %43
  call void @__cxa_free_exception(ptr %28) #1
  br label %46

46:                                               ; preds = %45, %43
  br label %73

47:                                               ; preds = %20
  %48 = getelementptr inbounds %struct.stack_t, ptr %1, i32 0, i32 1
  store i32 0, ptr %48, align 8
  %49 = call i32 @sigaltstack(ptr noundef %1, ptr noundef null) #1
  %50 = icmp eq i32 %49, -1
  br i1 %50, label %51, label %58

51:                                               ; preds = %47
  %52 = call ptr @__cxa_allocate_exception(i64 384) #1
  invoke void @_ZN3nix8SysErrorC2IJA29_cEEEDpRKT_(ptr noundef nonnull align 8 dereferenceable(380) %52, ptr noundef nonnull align 1 dereferenceable(29) @.str.4)
          to label %53 unwind label %54

53:                                               ; preds = %51
  call void @__cxa_throw(ptr %52, ptr @_ZTIN3nix8SysErrorE, ptr @_ZN3nix8SysErrorD2Ev) #18
  unreachable

54:                                               ; preds = %51
  %55 = landingpad { ptr, i32 }
          cleanup
  %56 = extractvalue { ptr, i32 } %55, 0
  store ptr %56, ptr %2, align 8
  %57 = extractvalue { ptr, i32 } %55, 1
  store i32 %57, ptr %3, align 4
  call void @__cxa_free_exception(ptr %52) #1
  br label %73

58:                                               ; preds = %47
  %59 = getelementptr inbounds %struct.sigaction, ptr %7, i32 0, i32 1
  %60 = call i32 @sigfillset(ptr noundef %59) #1
  %61 = getelementptr inbounds %struct.sigaction, ptr %7, i32 0, i32 0
  store ptr @_ZN3nixL14sigsegvHandlerEiP9siginfo_tPv, ptr %61, align 8
  %62 = getelementptr inbounds %struct.sigaction, ptr %7, i32 0, i32 2
  store i32 134217732, ptr %62, align 8
  %63 = call i32 @sigaction(i32 noundef 11, ptr noundef %7, ptr noundef null) #1
  %64 = icmp ne i32 %63, 0
  br i1 %64, label %65, label %72

65:                                               ; preds = %58
  %66 = call ptr @__cxa_allocate_exception(i64 384) #1
  invoke void @_ZN3nix8SysErrorC2IJA18_cEEEDpRKT_(ptr noundef nonnull align 8 dereferenceable(380) %66, ptr noundef nonnull align 1 dereferenceable(18) @.str.5)
          to label %67 unwind label %68

67:                                               ; preds = %65
  call void @__cxa_throw(ptr %66, ptr @_ZTIN3nix8SysErrorE, ptr @_ZN3nix8SysErrorD2Ev) #18
  unreachable

68:                                               ; preds = %65
  %69 = landingpad { ptr, i32 }
          cleanup
  %70 = extractvalue { ptr, i32 } %69, 0
  store ptr %70, ptr %2, align 8
  %71 = extractvalue { ptr, i32 } %69, 1
  store i32 %71, ptr %3, align 4
  call void @__cxa_free_exception(ptr %66) #1
  br label %73

72:                                               ; preds = %58
  ret void

73:                                               ; preds = %68, %54, %46, %31
  %74 = load ptr, ptr %2, align 8
  %75 = load i32, ptr %3, align 4
  %76 = insertvalue { ptr, i32 } poison, ptr %74, 0
  %77 = insertvalue { ptr, i32 } %76, i32 %75, 1
  resume { ptr, i32 } %77

78:                                               ; preds = %30
  unreachable
}