; Function Attrs: mustprogress uwtable
define void @_ZN3nix19detectStackOverflowEv() local_unnamed_addr #4 personality ptr @__gxx_personality_v0 {
  %1 = alloca %struct.stack_t, align 8
  %2 = alloca %"class.std::__cxx11::basic_string", align 8
  %3 = alloca %"class.std::allocator", align 1
  %4 = alloca %struct.sigaction, align 8
  %5 = tail call i64 @sysconf(i32 noundef 250) #23
  %6 = add nsw i64 %5, 16384
  %7 = getelementptr inbounds i8, ptr %1, i64 16
  store i64 %6, ptr %7, align 8
  %8 = load atomic i8, ptr @_ZGVZN3nix19detectStackOverflowEvE8stackBuf acquire, align 8
  %9 = icmp eq i8 %8, 0
  br i1 %9, label %10, label %15, !prof !4

10:                                               ; preds = %0
  %11 = tail call i32 @__cxa_guard_acquire(ptr nonnull @_ZGVZN3nix19detectStackOverflowEvE8stackBuf) #23
  %.not = icmp eq i32 %11, 0
  br i1 %.not, label %15, label %12

12:                                               ; preds = %10
  invoke void @_ZSt11make_uniqueISt6vectorIcSaIcEEJRmEENSt8__detail9_MakeUniqIT_E15__single_objectEDpOT0_(ptr dead_on_unwind nonnull writable sret(%"class.std::unique_ptr") align 8 @_ZZN3nix19detectStackOverflowEvE8stackBuf, ptr noundef nonnull align 8 dereferenceable(8) %7)
          to label %13 unwind label %22

13:                                               ; preds = %12
  %14 = call i32 @__cxa_atexit(ptr nonnull @_ZNSt10unique_ptrISt6vectorIcSaIcEESt14default_deleteIS2_EED2Ev, ptr nonnull @_ZZN3nix19detectStackOverflowEvE8stackBuf, ptr nonnull @__dso_handle) #23
  call void @__cxa_guard_release(ptr nonnull @_ZGVZN3nix19detectStackOverflowEvE8stackBuf) #23
  br label %15

15:                                               ; preds = %13, %10, %0
  %16 = load ptr, ptr @_ZZN3nix19detectStackOverflowEvE8stackBuf, align 8
  %17 = load ptr, ptr %16, align 8
  store ptr %17, ptr %1, align 8
  %.not6 = icmp eq ptr %17, null
  br i1 %.not6, label %18, label %28

18:                                               ; preds = %15
  %19 = call ptr @__cxa_allocate_exception(i64 376) #23
  call void @_ZNSaIcEC1Ev(ptr noundef nonnull align 1 dereferenceable(1) %3) #23
  invoke void @_ZNSt7__cxx1112basic_stringIcSt11char_traitsIcESaIcEEC2IS3_EEPKcRKS3_(ptr noundef nonnull align 8 dereferenceable(32) %2, ptr noundef nonnull @.str, ptr noundef nonnull align 1 dereferenceable(1) %3)
          to label %20 unwind label %.thread

20:                                               ; preds = %18
  invoke void @_ZN3nix5ErrorCI2NS_9BaseErrorEIJEEERKNSt7__cxx1112basic_stringIcSt11char_traitsIcESaIcEEEDpRKT_(ptr noundef nonnull align 8 dereferenceable(376) %19, ptr noundef nonnull align 8 dereferenceable(32) %2)
          to label %21 unwind label %25

21:                                               ; preds = %20
  invoke void @__cxa_throw(ptr nonnull %19, ptr nonnull @_ZTIN3nix5ErrorE, ptr nonnull @_ZN3nix5ErrorD2Ev) #24
          to label %49 unwind label %25

22:                                               ; preds = %12
  %23 = landingpad { ptr, i32 }
          cleanup
  call void @__cxa_guard_abort(ptr nonnull @_ZGVZN3nix19detectStackOverflowEvE8stackBuf) #23
  br label %48

.thread:                                          ; preds = %18
  %24 = landingpad { ptr, i32 }
          cleanup
  call void @_ZNSaIcED1Ev(ptr noundef nonnull align 1 dereferenceable(1) %3) #23
  br label %27

25:                                               ; preds = %20, %21
  %.0 = phi i1 [ false, %21 ], [ true, %20 ]
  %26 = landingpad { ptr, i32 }
          cleanup
  call void @_ZNSt7__cxx1112basic_stringIcSt11char_traitsIcESaIcEED2Ev(ptr noundef nonnull align 8 dereferenceable(32) %2) #23
  call void @_ZNSaIcED1Ev(ptr noundef nonnull align 1 dereferenceable(1) %3) #23
  br i1 %.0, label %27, label %48

27:                                               ; preds = %.thread, %25
  %.pn13 = phi { ptr, i32 } [ %24, %.thread ], [ %26, %25 ]
  call void @__cxa_free_exception(ptr %19) #23
  br label %48

28:                                               ; preds = %15
  %29 = getelementptr inbounds i8, ptr %1, i64 8
  store i32 0, ptr %29, align 8
  %30 = call i32 @sigaltstack(ptr noundef nonnull %1, ptr noundef null) #23
  %31 = icmp eq i32 %30, -1
  br i1 %31, label %32, label %37

32:                                               ; preds = %28
  %33 = call ptr @__cxa_allocate_exception(i64 384) #23
  invoke void @_ZN3nix8SysErrorC2IJA29_cEEEDpRKT_(ptr noundef nonnull align 8 dereferenceable(380) %33, ptr noundef nonnull align 1 dereferenceable(29) @.str.4)
          to label %34 unwind label %35

34:                                               ; preds = %32
  call void @__cxa_throw(ptr nonnull %33, ptr nonnull @_ZTIN3nix8SysErrorE, ptr nonnull @_ZN3nix8SysErrorD2Ev) #24
  unreachable

35:                                               ; preds = %32
  %36 = landingpad { ptr, i32 }
          cleanup
  call void @__cxa_free_exception(ptr %33) #23
  br label %48

37:                                               ; preds = %28
  %38 = getelementptr inbounds i8, ptr %4, i64 8
  %39 = call i32 @sigfillset(ptr noundef nonnull %38) #23
  store ptr @_ZN3nixL14sigsegvHandlerEiP9siginfo_tPv, ptr %4, align 8
  %40 = getelementptr inbounds i8, ptr %4, i64 136
  store i32 134217732, ptr %40, align 8
  %41 = call i32 @sigaction(i32 noundef 11, ptr noundef nonnull %4, ptr noundef null) #23
  %.not8 = icmp eq i32 %41, 0
  br i1 %.not8, label %47, label %42

42:                                               ; preds = %37
  %43 = call ptr @__cxa_allocate_exception(i64 384) #23
  invoke void @_ZN3nix8SysErrorC2IJA18_cEEEDpRKT_(ptr noundef nonnull align 8 dereferenceable(380) %43, ptr noundef nonnull align 1 dereferenceable(18) @.str.5)
          to label %44 unwind label %45

44:                                               ; preds = %42
  call void @__cxa_throw(ptr nonnull %43, ptr nonnull @_ZTIN3nix8SysErrorE, ptr nonnull @_ZN3nix8SysErrorD2Ev) #24
  unreachable

45:                                               ; preds = %42
  %46 = landingpad { ptr, i32 }
          cleanup
  call void @__cxa_free_exception(ptr %43) #23
  br label %48

47:                                               ; preds = %37
  ret void

48:                                               ; preds = %25, %27, %45, %35, %22
  %.pn9 = phi { ptr, i32 } [ %36, %35 ], [ %46, %45 ], [ %.pn13, %27 ], [ %26, %25 ], [ %23, %22 ]
  resume { ptr, i32 } %.pn9

49:                                               ; preds = %21
  unreachable
}